target datalayout = "e-m:e-p270:32:32-p271:32:32-p272:64:64-i64:64-i128:128-f80:128-n8:16:32:64-S128"
target triple = "x86_64-pc-linux-gnu"

%struct.Aig_Man_t_ = type { ptr, ptr, ptr, ptr, ptr, ptr, ptr, %struct.Aig_Obj_t_, i32, i32, i32, i32, i32, i32, [7 x i32], i32, ptr, i32, ptr, i32, ptr, i32, i32, i32, ptr, i32, i32, i32, i32, i32, ptr, ptr, i32, ptr, ptr, i32, ptr, ptr, i32, i32, i32, ptr, ptr, ptr, ptr, ptr, ptr, ptr, ptr, ptr, ptr, ptr, ptr, ptr, ptr, i32, ptr, ptr, ptr, ptr, i32, i64, i64, i64, ptr, ptr }
%struct.Aig_Obj_t_ = type { %union.anon, ptr, ptr, i64, i32, i32, %union.anon.0 }
%union.anon = type { ptr }
%union.anon.0 = type { ptr }
%struct.Vec_Ptr_t_ = type { i32, i32, ptr }

; Function Attrs: nounwind uwtable
define internal ptr @Vec_PtrEntry(ptr noundef %0, i32 noundef %1) #0 {
  %3 = alloca ptr, align 8
  %4 = alloca i32, align 4
  store ptr %0, ptr %3, align 8
  store i32 %1, ptr %4, align 4
  %5 = load ptr, ptr %3, align 8
  %6 = getelementptr inbounds %struct.Vec_Ptr_t_, ptr %5, i32 0, i32 2
  %7 = load ptr, ptr %6, align 8
  %8 = load i32, ptr %4, align 4
  %9 = sext i32 %8 to i64
  %10 = getelementptr inbounds ptr, ptr %7, i64 %9
  %11 = load ptr, ptr %10, align 8
  ret ptr %11
}

; Function Attrs: nounwind uwtable
define internal i32 @Vec_PtrSize(ptr noundef %0) #0 {
  %2 = alloca ptr, align 8
  store ptr %0, ptr %2, align 8
  %3 = load ptr, ptr %2, align 8
  %4 = getelementptr inbounds %struct.Vec_Ptr_t_, ptr %3, i32 0, i32 1
  %5 = load i32, ptr %4, align 4
  ret i32 %5
}

; Function Attrs: nounwind uwtable
define ptr @Fra_LcrAigPrepare(ptr noundef %0) #0 {
  %2 = alloca ptr, align 8
  %3 = alloca ptr, align 8
  %4 = alloca ptr, align 8
  %5 = alloca i32, align 4
  store ptr %0, ptr %2, align 8
  %6 = call noalias ptr @malloc(i64 noundef 344) #9
  store ptr %6, ptr %3, align 8
  %7 = load ptr, ptr %3, align 8
  call void @llvm.memset.p0.i64(ptr align 8 %7, i8 0, i64 344, i1 false)
  store i32 0, ptr %5, align 4
  br label %8

8:                                                ; preds = %32, %1
  %9 = load i32, ptr %5, align 4
  %10 = load ptr, ptr %2, align 8
  %11 = getelementptr inbounds %struct.Aig_Man_t_, ptr %10, i32 0, i32 4
  %12 = load ptr, ptr %11, align 8
  %13 = call i32 @Vec_PtrSize(ptr noundef %12)
  %14 = icmp slt i32 %9, %13
  br i1 %14, label %15, label %21

15:                                               ; preds = %8
  %16 = load ptr, ptr %2, align 8
  %17 = getelementptr inbounds %struct.Aig_Man_t_, ptr %16, i32 0, i32 4
  %18 = load ptr, ptr %17, align 8
  %19 = load i32, ptr %5, align 4
  %20 = call ptr @Vec_PtrEntry(ptr noundef %18, i32 noundef %19)
  store ptr %20, ptr %4, align 8
  br label %21

21:                                               ; preds = %15, %8
  %22 = phi i1 [ false, %8 ], [ true, %15 ]
  br i1 %22, label %23, label %35

23:                                               ; preds = %21
  %24 = load ptr, ptr %4, align 8
  %25 = icmp eq ptr %24, null
  br i1 %25, label %26, label %27

26:                                               ; preds = %23
  br label %31

27:                                               ; preds = %23
  %28 = load ptr, ptr %3, align 8
  %29 = load ptr, ptr %4, align 8
  %30 = getelementptr inbounds %struct.Aig_Obj_t_, ptr %29, i32 0, i32 6
  store ptr %28, ptr %30, align 8
  br label %31

31:                                               ; preds = %27, %26
  br label %32

32:                                               ; preds = %31
  %33 = load i32, ptr %5, align 4
  %34 = add nsw i32 %33, 1
  store i32 %34, ptr %5, align 4
  br label %8, !llvm.loop !7

35:                                               ; preds = %21
  %36 = load ptr, ptr %3, align 8
  ret ptr %36
}